target datalayout = "e-m:e-p270:32:32-p271:32:32-p272:64:64-i64:64-i128:128-f80:128-n8:16:32:64-S128"
target triple = "x86_64-pc-linux-gnu"

; Function Attrs: nounwind uwtable
define internal void @dc_left_4x4_c(ptr noundef %0, i64 noundef %1, ptr noundef %2, ptr noundef %3) #1 {
  %5 = alloca ptr, align 8
  %6 = alloca i64, align 8
  %7 = alloca ptr, align 8
  %8 = alloca ptr, align 8
  %9 = alloca ptr, align 8
  %10 = alloca ptr, align 8
  %11 = alloca i64, align 8
  store ptr %0, ptr %5, align 8, !tbaa !10
  store i64 %1, ptr %6, align 8, !tbaa !12
  store ptr %2, ptr %7, align 8, !tbaa !10
  store ptr %3, ptr %8, align 8, !tbaa !10
  call void @llvm.lifetime.start.p0(i64 8, ptr %9) #9
  %12 = load ptr, ptr %5, align 8, !tbaa !10
  store ptr %12, ptr %9, align 8, !tbaa !14
  call void @llvm.lifetime.start.p0(i64 8, ptr %10) #9
  %13 = load ptr, ptr %7, align 8, !tbaa !10
  store ptr %13, ptr %10, align 8, !tbaa !14
  call void @llvm.lifetime.start.p0(i64 8, ptr %11) #9
  %14 = load ptr, ptr %10, align 8, !tbaa !14
  %15 = getelementptr inbounds i16, ptr %14, i64 0
  %16 = load i16, ptr %15, align 2, !tbaa !17
  %17 = zext i16 %16 to i32
  %18 = load ptr, ptr %10, align 8, !tbaa !14
  %19 = getelementptr inbounds i16, ptr %18, i64 1
  %20 = load i16, ptr %19, align 2, !tbaa !17
  %21 = zext i16 %20 to i32
  %22 = add nsw i32 %17, %21
  %23 = load ptr, ptr %10, align 8, !tbaa !14
  %24 = getelementptr inbounds i16, ptr %23, i64 2
  %25 = load i16, ptr %24, align 2, !tbaa !17
  %26 = zext i16 %25 to i32
  %27 = add nsw i32 %22, %26
  %28 = load ptr, ptr %10, align 8, !tbaa !14
  %29 = getelementptr inbounds i16, ptr %28, i64 3
  %30 = load i16, ptr %29, align 2, !tbaa !17
  %31 = zext i16 %30 to i32
  %32 = add nsw i32 %27, %31
  %33 = add nsw i32 %32, 2
  %34 = ashr i32 %33, 2
  %35 = sext i32 %34 to i64
  %36 = mul i64 %35, 281479271743489
  store i64 %36, ptr %11, align 8, !tbaa !12
  %37 = load i64, ptr %6, align 8, !tbaa !12
  %38 = udiv i64 %37, 2
  store i64 %38, ptr %6, align 8, !tbaa !12
  %39 = load i64, ptr %11, align 8, !tbaa !12
  %40 = load ptr, ptr %9, align 8, !tbaa !14
  %41 = load i64, ptr %6, align 8, !tbaa !12
  %42 = mul nsw i64 %41, 0
  %43 = getelementptr inbounds i16, ptr %40, i64 %42
  store i64 %39, ptr %43, align 8, !tbaa !16
  %44 = load i64, ptr %11, align 8, !tbaa !12
  %45 = load ptr, ptr %9, align 8, !tbaa !14
  %46 = load i64, ptr %6, align 8, !tbaa !12
  %47 = mul nsw i64 %46, 1
  %48 = getelementptr inbounds i16, ptr %45, i64 %47
  store i64 %44, ptr %48, align 8, !tbaa !16
  %49 = load i64, ptr %11, align 8, !tbaa !12
  %50 = load ptr, ptr %9, align 8, !tbaa !14
  %51 = load i64, ptr %6, align 8, !tbaa !12
  %52 = mul nsw i64 %51, 2
  %53 = getelementptr inbounds i16, ptr %50, i64 %52
  store i64 %49, ptr %53, align 8, !tbaa !16
  %54 = load i64, ptr %11, align 8, !tbaa !12
  %55 = load ptr, ptr %9, align 8, !tbaa !14
  %56 = load i64, ptr %6, align 8, !tbaa !12
  %57 = mul nsw i64 %56, 3
  %58 = getelementptr inbounds i16, ptr %55, i64 %57
  store i64 %54, ptr %58, align 8, !tbaa !16
  call void @llvm.lifetime.end.p0(i64 8, ptr %11) #9
  call void @llvm.lifetime.end.p0(i64 8, ptr %10) #9
  call void @llvm.lifetime.end.p0(i64 8, ptr %9) #9
  ret void
}