; Function Attrs: mustprogress nofree norecurse nosync nounwind willreturn memory(argmem: readwrite) uwtable
define internal void @dc_left_4x4_c(ptr noundef writeonly captures(none) initializes((0, 8)) %0, i64 noundef %1, ptr noundef readonly captures(none) %2, ptr readnone captures(none) %3) #1 {
  %5 = load i16, ptr %2, align 2, !tbaa !9
  %6 = zext i16 %5 to i64
  %7 = getelementptr inbounds nuw i8, ptr %2, i64 2
  %8 = load i16, ptr %7, align 2, !tbaa !9
  %9 = zext i16 %8 to i64
  %10 = getelementptr inbounds nuw i8, ptr %2, i64 4
  %11 = load i16, ptr %10, align 2, !tbaa !9
  %12 = zext i16 %11 to i64
  %13 = getelementptr inbounds nuw i8, ptr %2, i64 6
  %14 = load i16, ptr %13, align 2, !tbaa !9
  %15 = zext i16 %14 to i64
  %16 = add nuw nsw i64 %6, 2
  %17 = add nuw nsw i64 %16, %9
  %18 = add nuw nsw i64 %17, %12
  %19 = add nuw nsw i64 %18, %15
  %20 = lshr i64 %19, 2
  %21 = mul nuw i64 %20, 281479271743489
  %22 = lshr i64 %1, 1
  store i64 %21, ptr %0, align 8, !tbaa !8
  %23 = getelementptr inbounds nuw i16, ptr %0, i64 %22
  store i64 %21, ptr %23, align 8, !tbaa !8
  %24 = and i64 %1, -2
  %25 = getelementptr inbounds nuw i16, ptr %0, i64 %24
  store i64 %21, ptr %25, align 8, !tbaa !8
  %.idx = mul nuw nsw i64 %22, 6
  %26 = getelementptr inbounds nuw i8, ptr %0, i64 %.idx
  store i64 %21, ptr %26, align 8, !tbaa !8
  ret void
}